; ModuleID = 'source-C-CXX/44/292.c'
source_filename = "source-C-CXX/44/292.c"
target datalayout = "e-m:e-p270:32:32-p271:32:32-p272:64:64-i64:64-f80:128-n8:16:32:64-S128"
target triple = "x86_64-pc-linux-gnu"

@.str = private unnamed_addr constant [5 x i8] c"%s%s\00", align 1
@.str.1 = private unnamed_addr constant [4 x i8] c"%d\0A\00", align 1

; Function Attrs: nofree nounwind sspstrong uwtable
define dso_local void @main() local_unnamed_addr #0 {
  %1 = alloca [50 x i8], align 16
  %2 = alloca [50 x i8], align 16
  %3 = getelementptr inbounds [50 x i8], [50 x i8]* %1, i64 0, i64 0
  call void @llvm.lifetime.start.p0i8(i64 50, i8* nonnull %3) #4
  %4 = getelementptr inbounds [50 x i8], [50 x i8]* %2, i64 0, i64 0
  call void @llvm.lifetime.start.p0i8(i64 50, i8* nonnull %4) #4
  %5 = call i32 (i8*, ...) @__isoc99_scanf(i8* getelementptr inbounds ([5 x i8], [5 x i8]* @.str, i64 0, i64 0), i8* nonnull %3, i8* nonnull %4)
  %6 = call i64 @strlen(i8* noundef nonnull %3) #5
  %7 = call i64 @strlen(i8* noundef nonnull %4) #5
  %8 = trunc i64 %7 to i32
  %9 = icmp sgt i32 %8, 0
  %10 = trunc i64 %6 to i32
  %11 = icmp sgt i32 %10, 0
  %12 = select i1 %9, i1 %11, i1 false
  br i1 %12, label %13, label %46

13:                                               ; preds = %0
  %14 = add i64 %6, 4294967295
  %15 = and i64 %14, 4294967295
  %16 = shl i64 %7, 32
  %17 = ashr exact i64 %16, 32
  br label %18

18:                                               ; preds = %33, %13
  %19 = phi i64 [ %35, %33 ], [ 0, %13 ]
  %20 = load i8, i8* %3, align 16, !tbaa !5
  %21 = getelementptr inbounds [50 x i8], [50 x i8]* %2, i64 0, i64 %19
  %22 = load i8, i8* %21, align 1, !tbaa !5
  %23 = icmp eq i8 %20, %22
  br i1 %23, label %24, label %33

24:                                               ; preds = %18
  %25 = trunc i64 %19 to i32
  br label %38

26:                                               ; preds = %43
  %27 = getelementptr inbounds [50 x i8], [50 x i8]* %1, i64 0, i64 %44
  %28 = load i8, i8* %27, align 1, !tbaa !5
  %29 = add nuw nsw i64 %44, %19
  %30 = getelementptr inbounds [50 x i8], [50 x i8]* %2, i64 0, i64 %29
  %31 = load i8, i8* %30, align 1, !tbaa !5
  %32 = icmp eq i8 %28, %31
  br i1 %32, label %38, label %33, !llvm.loop !8

33:                                               ; preds = %43, %26, %18
  %34 = xor i1 %23, true
  %35 = add nuw nsw i64 %19, 1
  %36 = icmp slt i64 %35, %17
  %37 = select i1 %34, i1 %36, i1 false
  br i1 %37, label %18, label %46, !llvm.loop !10

38:                                               ; preds = %24, %26
  %39 = phi i64 [ 0, %24 ], [ %44, %26 ]
  %40 = icmp eq i64 %39, %15
  br i1 %40, label %41, label %43

41:                                               ; preds = %38
  %42 = call i32 (i8*, ...) @printf(i8* nonnull dereferenceable(1) getelementptr inbounds ([4 x i8], [4 x i8]* @.str.1, i64 0, i64 0), i32 %25)
  br label %43

43:                                               ; preds = %41, %38
  %44 = add nuw nsw i64 %39, 1
  %45 = icmp eq i64 %39, %15
  br i1 %45, label %33, label %26, !llvm.loop !8

46:                                               ; preds = %33, %0
  call void @llvm.lifetime.end.p0i8(i64 50, i8* nonnull %4) #4
  call void @llvm.lifetime.end.p0i8(i64 50, i8* nonnull %3) #4
  ret void
}

; Function Attrs: argmemonly mustprogress nofree nosync nounwind willreturn
declare void @llvm.lifetime.start.p0i8(i64 immarg, i8* nocapture) #1

; Function Attrs: nofree nounwind
declare noundef i32 @__isoc99_scanf(i8* nocapture noundef readonly, ...) local_unnamed_addr #2

; Function Attrs: argmemonly mustprogress nofree nounwind readonly willreturn
declare i64 @strlen(i8* nocapture) local_unnamed_addr #3

; Function Attrs: nofree nounwind
declare noundef i32 @printf(i8* nocapture noundef readonly, ...) local_unnamed_addr #2

; Function Attrs: argmemonly mustprogress nofree nosync nounwind willreturn
declare void @llvm.lifetime.end.p0i8(i64 immarg, i8* nocapture) #1


!llvm.module.flags = !{!0, !1, !2, !3}
!llvm.ident = !{!4}

!0 = !{i32 1, !"wchar_size", i32 4}
!1 = !{i32 7, !"PIC Level", i32 2}
!2 = !{i32 7, !"PIE Level", i32 2}
!3 = !{i32 7, !"uwtable", i32 1}
!4 = !{!"clang version 13.0.0"}
!5 = !{!6, !6, i64 0}
!6 = !{!"omnipotent char", !7, i64 0}
!7 = !{!"Simple C/C++ TBAA"}
!8 = distinct !{!8, !9}
!9 = !{!"llvm.loop.mustprogress"}
!10 = distinct !{!10, !9}
